; Function Attrs: mustprogress nounwind uwtable
define dso_local void @_ZNK4llvm18CheckOpcodeMatcher9printImplERNS_11raw_ostreamEj(ptr nocapture noundef nonnull readonly align 8 dereferenceable(40) %0, ptr noundef nonnull align 8 dereferenceable(48) %1, i32 noundef %2) unnamed_addr #1 align 2 {
  %4 = tail call noundef nonnull align 8 dereferenceable(48) ptr @_ZN4llvm11raw_ostream6indentEj(ptr noundef nonnull align 8 dereferenceable(48) %1, i32 noundef %2) #13
  %5 = getelementptr inbounds nuw i8, ptr %4, i64 24
  %6 = load ptr, ptr %5, align 8
  %7 = getelementptr inbounds nuw i8, ptr %4, i64 32
  %8 = load ptr, ptr %7, align 8
  %9 = ptrtoint ptr %6 to i64
  %10 = ptrtoint ptr %8 to i64
  %11 = sub i64 %9, %10
  %12 = icmp ult i64 %11, 12
  br i1 %12, label %13, label %15

13:                                               ; preds = %3
  %14 = tail call noundef nonnull align 8 dereferenceable(48) ptr @_ZN4llvm11raw_ostream5writeEPKcm(ptr noundef nonnull align 8 dereferenceable(48) %4, ptr noundef nonnull @.str.14, i64 noundef 12) #13
  %.phi.trans.insert = getelementptr inbounds nuw i8, ptr %14, i64 32
  %.pre = load ptr, ptr %.phi.trans.insert, align 8
  br label %_ZN4llvm11raw_ostreamlsEPKc.exit

15:                                               ; preds = %3
  tail call void @llvm.memcpy.p0.p0.i64(ptr noundef nonnull align 1 dereferenceable(12) %8, ptr noundef nonnull align 1 dereferenceable(12) @.str.14, i64 12, i1 false)
  %16 = load ptr, ptr %7, align 8
  %17 = getelementptr inbounds i8, ptr %16, i64 12
  store ptr %17, ptr %7, align 8
  br label %_ZN4llvm11raw_ostreamlsEPKc.exit

_ZN4llvm11raw_ostreamlsEPKc.exit:                 ; preds = %13, %15
  %18 = phi ptr [ %.pre, %13 ], [ %17, %15 ]
  %.0.i.i = phi ptr [ %14, %13 ], [ %4, %15 ]
  %19 = getelementptr inbounds nuw i8, ptr %0, i64 32
  %20 = load ptr, ptr %19, align 8
  %21 = getelementptr inbounds nuw i8, ptr %20, i64 8
  %.sroa.0.0.copyload.i = load ptr, ptr %21, align 8
  %.sroa.2.0..sroa_idx.i = getelementptr inbounds i8, ptr %20, i64 16
  %.sroa.2.0.copyload.i = load i64, ptr %.sroa.2.0..sroa_idx.i, align 8
  %22 = getelementptr inbounds nuw i8, ptr %.0.i.i, i64 24
  %23 = load ptr, ptr %22, align 8
  %24 = getelementptr inbounds nuw i8, ptr %.0.i.i, i64 32
  %25 = ptrtoint ptr %23 to i64
  %26 = ptrtoint ptr %18 to i64
  %27 = sub i64 %25, %26
  %28 = icmp ugt i64 %.sroa.2.0.copyload.i, %27
  br i1 %28, label %29, label %31

29:                                               ; preds = %_ZN4llvm11raw_ostreamlsEPKc.exit
  %30 = tail call noundef nonnull align 8 dereferenceable(48) ptr @_ZN4llvm11raw_ostream5writeEPKcm(ptr noundef nonnull align 8 dereferenceable(48) %.0.i.i, ptr noundef %.sroa.0.0.copyload.i, i64 noundef %.sroa.2.0.copyload.i) #13
  %.phi.trans.insert4 = getelementptr inbounds nuw i8, ptr %30, i64 32
  %.pre5 = load ptr, ptr %.phi.trans.insert4, align 8
  br label %_ZN4llvm11raw_ostreamlsENS_9StringRefE.exit

31:                                               ; preds = %_ZN4llvm11raw_ostreamlsEPKc.exit
  %.not.i = icmp eq i64 %.sroa.2.0.copyload.i, 0
  br i1 %.not.i, label %_ZN4llvm11raw_ostreamlsENS_9StringRefE.exit, label %32

32:                                               ; preds = %31
  tail call void @llvm.memcpy.p0.p0.i64(ptr align 1 %18, ptr align 1 %.sroa.0.0.copyload.i, i64 %.sroa.2.0.copyload.i, i1 false)
  %33 = load ptr, ptr %24, align 8
  %34 = getelementptr inbounds i8, ptr %33, i64 %.sroa.2.0.copyload.i
  store ptr %34, ptr %24, align 8
  br label %_ZN4llvm11raw_ostreamlsENS_9StringRefE.exit

_ZN4llvm11raw_ostreamlsENS_9StringRefE.exit:      ; preds = %29, %31, %32
  %35 = phi ptr [ %.pre5, %29 ], [ %34, %32 ], [ %18, %31 ]
  %.0.i = phi ptr [ %30, %29 ], [ %.0.i.i, %32 ], [ %.0.i.i, %31 ]
  %36 = getelementptr inbounds nuw i8, ptr %.0.i, i64 24
  %37 = load ptr, ptr %36, align 8
  %.not.i2 = icmp ult ptr %35, %37
  br i1 %.not.i2, label %40, label %38

38:                                               ; preds = %_ZN4llvm11raw_ostreamlsENS_9StringRefE.exit
  %39 = tail call noundef nonnull align 8 dereferenceable(48) ptr @_ZN4llvm11raw_ostream5writeEh(ptr noundef nonnull align 8 dereferenceable(48) %.0.i, i8 noundef zeroext 10) #13
  br label %_ZN4llvm11raw_ostreamlsEc.exit

40:                                               ; preds = %_ZN4llvm11raw_ostreamlsENS_9StringRefE.exit
  %41 = getelementptr inbounds nuw i8, ptr %.0.i, i64 32
  %42 = getelementptr inbounds i8, ptr %35, i64 1
  store ptr %42, ptr %41, align 8
  store i8 10, ptr %35, align 1
  br label %_ZN4llvm11raw_ostreamlsEc.exit

_ZN4llvm11raw_ostreamlsEc.exit:                   ; preds = %38, %40
  ret void
}